target datalayout = "e-m:e-p270:32:32-p271:32:32-p272:64:64-i64:64-i128:128-f80:128-n8:16:32:64-S128"
target triple = "x86_64-pc-linux-gnu"

%struct.KINMemRec = type { ptr, double, ptr, ptr, double, double, i32, i64, i64, i64, i64, i32, i32, i32, i32, i32, i32, i32, i32, double, double, double, double, double, double, double, double, double, i32, double, i64, i64, i64, i64, i64, i64, i64, ptr, ptr, ptr, ptr, ptr, ptr, ptr, ptr, ptr, ptr, ptr, i32, i32, double, ptr, ptr, ptr, ptr, ptr, double, ptr, ptr, ptr, ptr, i64, i64, i32, ptr, ptr, i32, ptr, ptr, i64, i64, i64, i64, ptr, ptr, ptr, ptr, i32, ptr, double, double, double, double, double, i32, double, double, double, i32 }

@.str = private unnamed_addr constant [118 x i8] c"generated/home/dtcxzyw/WorkSpace/Projects/compilers/llvm-opt-benchmark/bench/sundials/sundials/src/kinsol/kinsol_io.c\00", align 1
@.str.1 = private unnamed_addr constant [27 x i8] c"kinsol_mem = NULL illegal.\00", align 1
@__func__.KINSetRelErrFunc = private unnamed_addr constant [17 x i8] c"KINSetRelErrFunc\00", align 1
@.str.16 = private unnamed_addr constant [21 x i8] c"relfunc < 0 illegal.\00", align 1

; Function Attrs: nounwind uwtable
define i32 @KINSetRelErrFunc(ptr noundef %0, double noundef %1) #0 {
  %3 = alloca i32, align 4
  %4 = alloca ptr, align 8
  %5 = alloca double, align 8
  %6 = alloca ptr, align 8
  %7 = alloca double, align 8
  %8 = alloca i32, align 4
  store ptr %0, ptr %4, align 8, !tbaa !3
  store double %1, ptr %5, align 8, !tbaa !20
  call void @llvm.lifetime.start.p0(i64 8, ptr %6) #5
  call void @llvm.lifetime.start.p0(i64 8, ptr %7) #5
  %9 = load ptr, ptr %4, align 8, !tbaa !3
  %10 = icmp eq ptr %9, null
  br i1 %10, label %11, label %12

11:                                               ; preds = %2
  call void (ptr, i32, i32, ptr, ptr, ptr, ...) @KINProcessError(ptr noundef null, i32 noundef -1, i32 noundef 707, ptr noundef @__func__.KINSetRelErrFunc, ptr noundef @.str, ptr noundef @.str.1)
  store i32 -1, ptr %3, align 4
  store i32 1, ptr %8, align 4
  br label %47

12:                                               ; preds = %2
  %13 = load ptr, ptr %4, align 8, !tbaa !3
  store ptr %13, ptr %6, align 8, !tbaa !7
  %14 = load double, ptr %5, align 8, !tbaa !20
  %15 = fcmp olt double %14, 0.000000e+00
  br i1 %15, label %16, label %18

16:                                               ; preds = %12
  %17 = load ptr, ptr %6, align 8, !tbaa !7
  call void (ptr, i32, i32, ptr, ptr, ptr, ...) @KINProcessError(ptr noundef %17, i32 noundef -2, i32 noundef 715, ptr noundef @__func__.KINSetRelErrFunc, ptr noundef @.str, ptr noundef @.str.16)
  store i32 -2, ptr %3, align 4
  store i32 1, ptr %8, align 4
  br label %47

18:                                               ; preds = %12
  %19 = load double, ptr %5, align 8, !tbaa !20
  %20 = fcmp oeq double %19, 0.000000e+00
  br i1 %20, label %21, label %35

21:                                               ; preds = %18
  %22 = load ptr, ptr %6, align 8, !tbaa !7
  %23 = getelementptr inbounds nuw %struct.KINMemRec, ptr %22, i32 0, i32 1
  %24 = load double, ptr %23, align 8, !tbaa !46
  store double %24, ptr %7, align 8, !tbaa !20
  %25 = load double, ptr %7, align 8, !tbaa !20
  %26 = fcmp ole double %25, 0.000000e+00
  br i1 %26, label %27, label %28

27:                                               ; preds = %21
  br label %31

28:                                               ; preds = %21
  %29 = load double, ptr %7, align 8, !tbaa !20
  %30 = call double @sqrt(double noundef %29) #5, !tbaa !27
  br label %31

31:                                               ; preds = %28, %27
  %32 = phi double [ 0.000000e+00, %27 ], [ %30, %28 ]
  %33 = load ptr, ptr %6, align 8, !tbaa !7
  %34 = getelementptr inbounds nuw %struct.KINMemRec, ptr %33, i32 0, i32 21
  store double %32, ptr %34, align 8, !tbaa !47
  br label %46

35:                                               ; preds = %18
  %36 = load double, ptr %5, align 8, !tbaa !20
  %37 = fcmp ole double %36, 0.000000e+00
  br i1 %37, label %38, label %39

38:                                               ; preds = %35
  br label %42

39:                                               ; preds = %35
  %40 = load double, ptr %5, align 8, !tbaa !20
  %41 = call double @sqrt(double noundef %40) #5, !tbaa !27
  br label %42

42:                                               ; preds = %39, %38
  %43 = phi double [ 0.000000e+00, %38 ], [ %41, %39 ]
  %44 = load ptr, ptr %6, align 8, !tbaa !7
  %45 = getelementptr inbounds nuw %struct.KINMemRec, ptr %44, i32 0, i32 21
  store double %43, ptr %45, align 8, !tbaa !47
  br label %46

46:                                               ; preds = %42, %31
  store i32 0, ptr %3, align 4
  store i32 1, ptr %8, align 4
  br label %47

47:                                               ; preds = %46, %16, %11
  call void @llvm.lifetime.end.p0(i64 8, ptr %7) #5
  call void @llvm.lifetime.end.p0(i64 8, ptr %6) #5
  %48 = load i32, ptr %3, align 4
  ret i32 %48
}