; Function Attrs: nounwind uwtable
define range(i32 -2, 1) i32 @KINSetRelErrFunc(ptr noundef %0, double noundef %1) local_unnamed_addr #0 {
  %3 = icmp eq ptr %0, null
  br i1 %3, label %4, label %5

4:                                                ; preds = %2
  tail call void (ptr, i32, i32, ptr, ptr, ptr, ...) @KINProcessError(ptr noundef null, i32 noundef -1, i32 noundef 707, ptr noundef nonnull @__func__.KINSetRelErrFunc, ptr noundef nonnull @.str, ptr noundef nonnull @.str.1) #9
  br label %22

5:                                                ; preds = %2
  %6 = fcmp olt double %1, 0.000000e+00
  br i1 %6, label %7, label %8

7:                                                ; preds = %5
  tail call void (ptr, i32, i32, ptr, ptr, ptr, ...) @KINProcessError(ptr noundef nonnull %0, i32 noundef -2, i32 noundef 715, ptr noundef nonnull @__func__.KINSetRelErrFunc, ptr noundef nonnull @.str, ptr noundef nonnull @.str.16) #9
  br label %22

8:                                                ; preds = %5
  %9 = fcmp oeq double %1, 0.000000e+00
  br i1 %9, label %10, label %19

10:                                               ; preds = %8
  %11 = getelementptr inbounds nuw i8, ptr %0, i64 8
  %12 = load double, ptr %11, align 8, !tbaa !40
  %13 = fcmp ugt double %12, 0.000000e+00
  br i1 %13, label %14, label %16

14:                                               ; preds = %10
  %15 = tail call double @sqrt(double noundef %12) #9, !tbaa !41
  br label %16

16:                                               ; preds = %10, %14
  %17 = phi double [ %15, %14 ], [ 0.000000e+00, %10 ]
  %18 = getelementptr inbounds nuw i8, ptr %0, i64 136
  store double %17, ptr %18, align 8, !tbaa !42
  br label %22

19:                                               ; preds = %8
  %20 = tail call double @sqrt(double noundef %1) #9, !tbaa !41
  %21 = getelementptr inbounds nuw i8, ptr %0, i64 136
  store double %20, ptr %21, align 8, !tbaa !42
  br label %22

22:                                               ; preds = %16, %19, %7, %4
  %.0 = phi i32 [ -1, %4 ], [ -2, %7 ], [ 0, %19 ], [ 0, %16 ]
  ret i32 %.0
}